target datalayout = "e-m:e-p270:32:32-p271:32:32-p272:64:64-i64:64-i128:128-f80:128-n8:16:32:64-S128"
target triple = "x86_64-unknown-linux-gnu"

%"class.cvc5::internal::NodeTemplate" = type { ptr }
%"struct.std::_Rb_tree_header" = type { %"struct.std::_Rb_tree_node_base", i64 }
%"struct.std::_Rb_tree_node_base" = type { i32, ptr, ptr, ptr }
%"class.cvc5::internal::TypeNode" = type { ptr }
%"class.std::unordered_set" = type { %"class.std::_Hashtable" }
%"class.std::_Hashtable" = type { ptr, i64, %"struct.std::__detail::_Hash_node_base", i64, %"struct.std::__detail::_Prime_rehash_policy", ptr }
%"struct.std::__detail::_Hash_node_base" = type { ptr }
%"struct.std::__detail::_Prime_rehash_policy" = type { float, i64 }
%"class.std::vector.289" = type { %"struct.std::_Vector_base.290" }
%"struct.std::_Vector_base.290" = type { %"struct.std::_Vector_base<cvc5::internal::NodeTemplate<true>, std::allocator<cvc5::internal::NodeTemplate<true>>>::_Vector_impl" }
%"struct.std::_Vector_base<cvc5::internal::NodeTemplate<true>, std::allocator<cvc5::internal::NodeTemplate<true>>>::_Vector_impl" = type { %"struct.std::_Vector_base<cvc5::internal::NodeTemplate<true>, std::allocator<cvc5::internal::NodeTemplate<true>>>::_Vector_impl_data" }
%"struct.std::_Vector_base<cvc5::internal::NodeTemplate<true>, std::allocator<cvc5::internal::NodeTemplate<true>>>::_Vector_impl_data" = type { ptr, ptr, ptr }
%"struct.std::_Rb_tree_key_compare.520" = type { %"struct.std::less.521" }
%"struct.std::less.521" = type { i8 }
%"class.cvc5::internal::theory::quantifiers::SygusEnumerator::TermCache" = type <{ ptr, %"class.cvc5::internal::NodeTemplate", %"class.cvc5::internal::TypeNode", ptr, i8, [3 x i8], i32, %"class.std::map.515", %"class.std::map.523", %"class.std::map.528", %"class.std::vector.289", %"class.std::unordered_set", %"class.std::map.515", i32, i8, [3 x i8] }>
%"class.std::map.523" = type { %"class.std::_Rb_tree.524" }
%"class.std::_Rb_tree.524" = type { %"struct.std::_Rb_tree<unsigned int, std::pair<const unsigned int, cvc5::internal::theory::quantifiers::SygusEnumerator::TermCache::ConstructorClass>, std::_Select1st<std::pair<const unsigned int, cvc5::internal::theory::quantifiers::SygusEnumerator::TermCache::ConstructorClass>>, std::less<unsigned int>>::_Rb_tree_impl" }
%"struct.std::_Rb_tree<unsigned int, std::pair<const unsigned int, cvc5::internal::theory::quantifiers::SygusEnumerator::TermCache::ConstructorClass>, std::_Select1st<std::pair<const unsigned int, cvc5::internal::theory::quantifiers::SygusEnumerator::TermCache::ConstructorClass>>, std::less<unsigned int>>::_Rb_tree_impl" = type { %"struct.std::_Rb_tree_key_compare.520", %"struct.std::_Rb_tree_header" }
%"class.std::map.528" = type { %"class.std::_Rb_tree.529" }
%"class.std::_Rb_tree.529" = type { %"struct.std::_Rb_tree<unsigned int, std::pair<const unsigned int, std::vector<unsigned int>>, std::_Select1st<std::pair<const unsigned int, std::vector<unsigned int>>>, std::less<unsigned int>>::_Rb_tree_impl" }
%"struct.std::_Rb_tree<unsigned int, std::pair<const unsigned int, std::vector<unsigned int>>, std::_Select1st<std::pair<const unsigned int, std::vector<unsigned int>>>, std::less<unsigned int>>::_Rb_tree_impl" = type { %"struct.std::_Rb_tree_key_compare.520", %"struct.std::_Rb_tree_header" }
%"class.std::map.515" = type { %"class.std::_Rb_tree.516" }
%"class.std::_Rb_tree.516" = type { %"struct.std::_Rb_tree<unsigned int, std::pair<const unsigned int, unsigned int>, std::_Select1st<std::pair<const unsigned int, unsigned int>>, std::less<unsigned int>>::_Rb_tree_impl" }
%"struct.std::_Rb_tree<unsigned int, std::pair<const unsigned int, unsigned int>, std::_Select1st<std::pair<const unsigned int, unsigned int>>, std::less<unsigned int>>::_Rb_tree_impl" = type { %"struct.std::_Rb_tree_key_compare.520", %"struct.std::_Rb_tree_header" }

; Function Attrs: mustprogress nounwind uwtable
define linkonce_odr hidden noundef i64 @_ZNKSt6vectorIN4cvc58internal12NodeTemplateILb1EEESaIS3_EE4sizeEv(ptr noundef nonnull align 8 dereferenceable(24) %this) #5 comdat align 2 {
entry:
  %this.addr = alloca ptr, align 8
  store ptr %this, ptr %this.addr, align 8
  %this1 = load ptr, ptr %this.addr, align 8
  %_M_impl = getelementptr inbounds %"struct.std::_Vector_base.290", ptr %this1, i32 0, i32 0
  %_M_finish = getelementptr inbounds %"struct.std::_Vector_base<cvc5::internal::NodeTemplate<true>, std::allocator<cvc5::internal::NodeTemplate<true>>>::_Vector_impl_data", ptr %_M_impl, i32 0, i32 1
  %0 = load ptr, ptr %_M_finish, align 8
  %_M_impl2 = getelementptr inbounds %"struct.std::_Vector_base.290", ptr %this1, i32 0, i32 0
  %_M_start = getelementptr inbounds %"struct.std::_Vector_base<cvc5::internal::NodeTemplate<true>, std::allocator<cvc5::internal::NodeTemplate<true>>>::_Vector_impl_data", ptr %_M_impl2, i32 0, i32 0
  %1 = load ptr, ptr %_M_start, align 8
  %sub.ptr.lhs.cast = ptrtoint ptr %0 to i64
  %sub.ptr.rhs.cast = ptrtoint ptr %1 to i64
  %sub.ptr.sub = sub i64 %sub.ptr.lhs.cast, %sub.ptr.rhs.cast
  %sub.ptr.div = sdiv exact i64 %sub.ptr.sub, 8
  ret i64 %sub.ptr.div
}

; Function Attrs: mustprogress nounwind uwtable
define hidden noundef i32 @_ZNK4cvc58internal6theory11quantifiers15SygusEnumerator9TermCache11getNumTermsEv(ptr noundef nonnull align 8 dereferenceable(317) %this) #5 align 2 {
entry:
  %this.addr = alloca ptr, align 8
  store ptr %this, ptr %this.addr, align 8
  %this1 = load ptr, ptr %this.addr, align 8
  %d_terms = getelementptr inbounds %"class.cvc5::internal::theory::quantifiers::SygusEnumerator::TermCache", ptr %this1, i32 0, i32 10
  %call = call noundef i64 @_ZNKSt6vectorIN4cvc58internal12NodeTemplateILb1EEESaIS3_EE4sizeEv(ptr noundef nonnull align 8 dereferenceable(24) %d_terms) #3
  %conv = trunc i64 %call to i32
  ret i32 %conv
}